target datalayout = "e-m:e-p270:32:32-p271:32:32-p272:64:64-i64:64-i128:128-f80:128-n8:16:32:64-S128"
target triple = "x86_64-pc-linux-gnu"

@.str = private unnamed_addr constant [32 x i8] c"../openssl/crypto/x509/t_x509.c\00", align 1
@.str.4 = private unnamed_addr constant [1 x i8] zeroinitializer, align 1
@.str.7 = private unnamed_addr constant [2 x i8] c"\0A\00", align 1
@.str.29 = private unnamed_addr constant [3 x i8] c", \00", align 1
@.str.42 = private unnamed_addr constant [34 x i8] c"%s at depth = %d error = %d (%s)\0A\00", align 1
@.str.43 = private unnamed_addr constant [20 x i8] c"CRL path validation\00", align 1
@.str.44 = private unnamed_addr constant [25 x i8] c"Certificate verification\00", align 1
@.str.45 = private unnamed_addr constant [24 x i8] c"Expected hostname(s) = \00", align 1
@.str.46 = private unnamed_addr constant [5 x i8] c"%s%s\00", align 1
@.str.47 = private unnamed_addr constant [29 x i8] c"Expected email address = %s\0A\00", align 1
@.str.48 = private unnamed_addr constant [26 x i8] c"Expected IP address = %s\0A\00", align 1
@.str.49 = private unnamed_addr constant [14 x i8] c"Failure for:\0A\00", align 1
@.str.50 = private unnamed_addr constant [20 x i8] c"Non-trusted certs:\0A\00", align 1
@.str.51 = private unnamed_addr constant [23 x i8] c"Certs in trust store:\0A\00", align 1
@__func__.X509_STORE_CTX_print_verify_cb = private unnamed_addr constant [31 x i8] c"X509_STORE_CTX_print_verify_cb\00", align 1
@.str.60 = private unnamed_addr constant [24 x i8] c"    (no trusted store)\0A\00", align 1

; Function Attrs: inlinehint nounwind uwtable
define internal ptr @ossl_check_X509_freefunc_type(ptr noundef %0) #2 {
  %2 = alloca ptr, align 8
  store ptr %0, ptr %2, align 8, !tbaa !8
  %3 = load ptr, ptr %2, align 8, !tbaa !8
  ret ptr %3
}

; Function Attrs: inlinehint nounwind uwtable
define internal ptr @ossl_check_X509_sk_type(ptr noundef %0) #2 {
  %2 = alloca ptr, align 8
  store ptr %0, ptr %2, align 8, !tbaa !3
  %3 = load ptr, ptr %2, align 8, !tbaa !3
  ret ptr %3
}

; Function Attrs: nounwind uwtable
define void @OSSL_STACK_OF_X509_free(ptr noundef %0) #0 {
  %2 = alloca ptr, align 8
  store ptr %0, ptr %2, align 8, !tbaa !3
  %3 = load ptr, ptr %2, align 8, !tbaa !3
  %4 = call ptr @ossl_check_X509_sk_type(ptr noundef %3)
  %5 = call ptr @ossl_check_X509_freefunc_type(ptr noundef @X509_free)
  call void @OPENSSL_sk_pop_free(ptr noundef %4, ptr noundef %5)
  ret void
}

; Function Attrs: nounwind uwtable
define internal i32 @print_store_certs(ptr noundef %0, ptr noundef %1) #0 {
  %3 = alloca i32, align 4
  %4 = alloca ptr, align 8
  %5 = alloca ptr, align 8
  %6 = alloca ptr, align 8
  %7 = alloca i32, align 4
  store ptr %0, ptr %4, align 8, !tbaa !15
  store ptr %1, ptr %5, align 8, !tbaa !79
  %8 = load ptr, ptr %5, align 8, !tbaa !79
  %9 = icmp ne ptr %8, null
  br i1 %9, label %10, label %18

10:                                               ; preds = %2
  call void @llvm.lifetime.start.p0(i64 8, ptr %6) #4
  %11 = load ptr, ptr %5, align 8, !tbaa !79
  %12 = call ptr @X509_STORE_get1_all_certs(ptr noundef %11)
  store ptr %12, ptr %6, align 8, !tbaa !3
  call void @llvm.lifetime.start.p0(i64 4, ptr %7) #4
  %13 = load ptr, ptr %4, align 8, !tbaa !15
  %14 = load ptr, ptr %6, align 8, !tbaa !3
  %15 = call i32 @print_certs(ptr noundef %13, ptr noundef %14)
  store i32 %15, ptr %7, align 4, !tbaa !17
  %16 = load ptr, ptr %6, align 8, !tbaa !3
  call void @OSSL_STACK_OF_X509_free(ptr noundef %16)
  %17 = load i32, ptr %7, align 4, !tbaa !17
  store i32 %17, ptr %3, align 4
  call void @llvm.lifetime.end.p0(i64 4, ptr %7) #4
  call void @llvm.lifetime.end.p0(i64 8, ptr %6) #4
  br label %23

18:                                               ; preds = %2
  %19 = load ptr, ptr %4, align 8, !tbaa !15
  %20 = call i32 (ptr, ptr, ...) @BIO_printf(ptr noundef %19, ptr noundef @.str.60)
  %21 = icmp sge i32 %20, 0
  %22 = zext i1 %21 to i32
  store i32 %22, ptr %3, align 4
  br label %23

23:                                               ; preds = %18, %10
  %24 = load i32, ptr %3, align 4
  ret i32 %24
}

; Function Attrs: nounwind uwtable
define i32 @X509_STORE_CTX_print_verify_cb(i32 noundef %0, ptr noundef %1) #0 {
  %3 = alloca i32, align 4
  %4 = alloca i32, align 4
  %5 = alloca ptr, align 8
  %6 = alloca i32, align 4
  %7 = alloca ptr, align 8
  %8 = alloca i32, align 4
  %9 = alloca ptr, align 8
  %10 = alloca ptr, align 8
  %11 = alloca ptr, align 8
  %12 = alloca i32, align 4
  store i32 %0, ptr %4, align 4, !tbaa !17
  store ptr %1, ptr %5, align 8, !tbaa !77
  %13 = load i32, ptr %4, align 4, !tbaa !17
  %14 = icmp eq i32 %13, 0
  br i1 %14, label %15, label %132

15:                                               ; preds = %2
  %16 = load ptr, ptr %5, align 8, !tbaa !77
  %17 = icmp ne ptr %16, null
  br i1 %17, label %18, label %132

18:                                               ; preds = %15
  call void @llvm.lifetime.start.p0(i64 4, ptr %6) #4
  %19 = load ptr, ptr %5, align 8, !tbaa !77
  %20 = call i32 @X509_STORE_CTX_get_error(ptr noundef %19)
  store i32 %20, ptr %6, align 4, !tbaa !17
  call void @llvm.lifetime.start.p0(i64 8, ptr %7) #4
  %21 = call ptr @BIO_s_mem()
  %22 = call ptr @BIO_new(ptr noundef %21)
  store ptr %22, ptr %7, align 8, !tbaa !15
  %23 = load ptr, ptr %7, align 8, !tbaa !15
  %24 = icmp eq ptr %23, null
  br i1 %24, label %25, label %26

25:                                               ; preds = %18
  store i32 0, ptr %3, align 4
  store i32 1, ptr %8, align 4
  br label %129

26:                                               ; preds = %18
  %27 = load ptr, ptr %7, align 8, !tbaa !15
  %28 = load ptr, ptr %5, align 8, !tbaa !77
  %29 = call ptr @X509_STORE_CTX_get0_parent_ctx(ptr noundef %28)
  %30 = icmp ne ptr %29, null
  %31 = select i1 %30, ptr @.str.43, ptr @.str.44
  %32 = load ptr, ptr %5, align 8, !tbaa !77
  %33 = call i32 @X509_STORE_CTX_get_error_depth(ptr noundef %32)
  %34 = load i32, ptr %6, align 4, !tbaa !17
  %35 = load i32, ptr %6, align 4, !tbaa !17
  %36 = sext i32 %35 to i64
  %37 = call ptr @X509_verify_cert_error_string(i64 noundef %36)
  %38 = call i32 (ptr, ptr, ...) @BIO_printf(ptr noundef %27, ptr noundef @.str.42, ptr noundef %31, i32 noundef %33, i32 noundef %34, ptr noundef %37)
  call void @llvm.lifetime.start.p0(i64 8, ptr %9) #4
  %39 = load ptr, ptr %5, align 8, !tbaa !77
  %40 = call ptr @X509_STORE_CTX_get0_store(ptr noundef %39)
  store ptr %40, ptr %9, align 8, !tbaa !79
  call void @llvm.lifetime.start.p0(i64 8, ptr %10) #4
  %41 = load ptr, ptr %9, align 8, !tbaa !79
  %42 = call ptr @X509_STORE_get0_param(ptr noundef %41)
  store ptr %42, ptr %10, align 8, !tbaa !81
  call void @llvm.lifetime.start.p0(i64 8, ptr %11) #4
  call void @llvm.lifetime.start.p0(i64 4, ptr %12) #4
  store i32 0, ptr %12, align 4, !tbaa !17
  %43 = load i32, ptr %6, align 4, !tbaa !17
  switch i32 %43, label %84 [
    i32 62, label %44
    i32 63, label %63
    i32 64, label %73
  ]

44:                                               ; preds = %26
  %45 = load ptr, ptr %7, align 8, !tbaa !15
  %46 = call i32 (ptr, ptr, ...) @BIO_printf(ptr noundef %45, ptr noundef @.str.45)
  br label %47

47:                                               ; preds = %53, %44
  %48 = load ptr, ptr %10, align 8, !tbaa !81
  %49 = load i32, ptr %12, align 4, !tbaa !17
  %50 = add nsw i32 %49, 1
  store i32 %50, ptr %12, align 4, !tbaa !17
  %51 = call ptr @X509_VERIFY_PARAM_get0_host(ptr noundef %48, i32 noundef %49)
  store ptr %51, ptr %11, align 8, !tbaa !34
  %52 = icmp ne ptr %51, null
  br i1 %52, label %53, label %60

53:                                               ; preds = %47
  %54 = load ptr, ptr %7, align 8, !tbaa !15
  %55 = load i32, ptr %12, align 4, !tbaa !17
  %56 = icmp eq i32 %55, 1
  %57 = select i1 %56, ptr @.str.4, ptr @.str.29
  %58 = load ptr, ptr %11, align 8, !tbaa !34
  %59 = call i32 (ptr, ptr, ...) @BIO_printf(ptr noundef %54, ptr noundef @.str.46, ptr noundef %57, ptr noundef %58)
  br label %47, !llvm.loop !83

60:                                               ; preds = %47
  %61 = load ptr, ptr %7, align 8, !tbaa !15
  %62 = call i32 (ptr, ptr, ...) @BIO_printf(ptr noundef %61, ptr noundef @.str.7)
  br label %85

63:                                               ; preds = %26
  %64 = load ptr, ptr %10, align 8, !tbaa !81
  %65 = call ptr @X509_VERIFY_PARAM_get0_email(ptr noundef %64)
  store ptr %65, ptr %11, align 8, !tbaa !34
  %66 = load ptr, ptr %11, align 8, !tbaa !34
  %67 = icmp ne ptr %66, null
  br i1 %67, label %68, label %72

68:                                               ; preds = %63
  %69 = load ptr, ptr %7, align 8, !tbaa !15
  %70 = load ptr, ptr %11, align 8, !tbaa !34
  %71 = call i32 (ptr, ptr, ...) @BIO_printf(ptr noundef %69, ptr noundef @.str.47, ptr noundef %70)
  br label %72

72:                                               ; preds = %68, %63
  br label %85

73:                                               ; preds = %26
  %74 = load ptr, ptr %10, align 8, !tbaa !81
  %75 = call ptr @X509_VERIFY_PARAM_get1_ip_asc(ptr noundef %74)
  store ptr %75, ptr %11, align 8, !tbaa !34
  %76 = load ptr, ptr %11, align 8, !tbaa !34
  %77 = icmp ne ptr %76, null
  br i1 %77, label %78, label %82

78:                                               ; preds = %73
  %79 = load ptr, ptr %7, align 8, !tbaa !15
  %80 = load ptr, ptr %11, align 8, !tbaa !34
  %81 = call i32 (ptr, ptr, ...) @BIO_printf(ptr noundef %79, ptr noundef @.str.48, ptr noundef %80)
  br label %82

82:                                               ; preds = %78, %73
  %83 = load ptr, ptr %11, align 8, !tbaa !34
  call void @CRYPTO_free(ptr noundef %83, ptr noundef @.str, i32 noundef 477)
  br label %85

84:                                               ; preds = %26
  br label %85

85:                                               ; preds = %84, %82, %72, %60
  call void @llvm.lifetime.end.p0(i64 4, ptr %12) #4
  call void @llvm.lifetime.end.p0(i64 8, ptr %11) #4
  call void @llvm.lifetime.end.p0(i64 8, ptr %10) #4
  call void @llvm.lifetime.end.p0(i64 8, ptr %9) #4
  %86 = load ptr, ptr %7, align 8, !tbaa !15
  %87 = call i32 (ptr, ptr, ...) @BIO_printf(ptr noundef %86, ptr noundef @.str.49)
  %88 = load ptr, ptr %7, align 8, !tbaa !15
  %89 = load ptr, ptr %5, align 8, !tbaa !77
  %90 = call ptr @X509_STORE_CTX_get_current_cert(ptr noundef %89)
  %91 = call i32 @ossl_x509_print_ex_brief(ptr noundef %88, ptr noundef %90, i64 noundef 256)
  %92 = load i32, ptr %6, align 4, !tbaa !17
  %93 = icmp eq i32 %92, 27
  br i1 %93, label %112, label %94

94:                                               ; preds = %85
  %95 = load i32, ptr %6, align 4, !tbaa !17
  %96 = icmp eq i32 %95, 18
  br i1 %96, label %112, label %97

97:                                               ; preds = %94
  %98 = load i32, ptr %6, align 4, !tbaa !17
  %99 = icmp eq i32 %98, 19
  br i1 %99, label %112, label %100

100:                                              ; preds = %97
  %101 = load i32, ptr %6, align 4, !tbaa !17
  %102 = icmp eq i32 %101, 2
  br i1 %102, label %112, label %103

103:                                              ; preds = %100
  %104 = load i32, ptr %6, align 4, !tbaa !17
  %105 = icmp eq i32 %104, 20
  br i1 %105, label %112, label %106

106:                                              ; preds = %103
  %107 = load i32, ptr %6, align 4, !tbaa !17
  %108 = icmp eq i32 %107, 33
  br i1 %108, label %112, label %109

109:                                              ; preds = %106
  %110 = load i32, ptr %6, align 4, !tbaa !17
  %111 = icmp eq i32 %110, 70
  br i1 %111, label %112, label %125

112:                                              ; preds = %109, %106, %103, %100, %97, %94, %85
  %113 = load ptr, ptr %7, align 8, !tbaa !15
  %114 = call i32 (ptr, ptr, ...) @BIO_printf(ptr noundef %113, ptr noundef @.str.50)
  %115 = load ptr, ptr %7, align 8, !tbaa !15
  %116 = load ptr, ptr %5, align 8, !tbaa !77
  %117 = call ptr @X509_STORE_CTX_get0_untrusted(ptr noundef %116)
  %118 = call i32 @print_certs(ptr noundef %115, ptr noundef %117)
  %119 = load ptr, ptr %7, align 8, !tbaa !15
  %120 = call i32 (ptr, ptr, ...) @BIO_printf(ptr noundef %119, ptr noundef @.str.51)
  %121 = load ptr, ptr %7, align 8, !tbaa !15
  %122 = load ptr, ptr %5, align 8, !tbaa !77
  %123 = call ptr @X509_STORE_CTX_get0_store(ptr noundef %122)
  %124 = call i32 @print_store_certs(ptr noundef %121, ptr noundef %123)
  br label %125

125:                                              ; preds = %112, %109
  call void @ERR_new()
  call void @ERR_set_debug(ptr noundef @.str, i32 noundef 499, ptr noundef @__func__.X509_STORE_CTX_print_verify_cb)
  call void (i32, i32, ptr, ...) @ERR_set_error(i32 noundef 11, i32 noundef 139, ptr noundef null)
  %126 = load ptr, ptr %7, align 8, !tbaa !15
  call void @ERR_add_error_mem_bio(ptr noundef @.str.7, ptr noundef %126)
  %127 = load ptr, ptr %7, align 8, !tbaa !15
  %128 = call i32 @BIO_free(ptr noundef %127)
  store i32 0, ptr %8, align 4
  br label %129

129:                                              ; preds = %125, %25
  call void @llvm.lifetime.end.p0(i64 8, ptr %7) #4
  call void @llvm.lifetime.end.p0(i64 4, ptr %6) #4
  %130 = load i32, ptr %8, align 4
  switch i32 %130, label %136 [
    i32 0, label %131
    i32 1, label %134
  ]

131:                                              ; preds = %129
  br label %132

132:                                              ; preds = %131, %15, %2
  %133 = load i32, ptr %4, align 4, !tbaa !17
  store i32 %133, ptr %3, align 4
  br label %134

134:                                              ; preds = %132, %129
  %135 = load i32, ptr %3, align 4
  ret i32 %135

136:                                              ; preds = %129
  unreachable
}